target datalayout = "e-m:e-p270:32:32-p271:32:32-p272:64:64-i64:64-i128:128-f80:128-n8:16:32:64-S128"
target triple = "x86_64-pc-linux-gnu"

%struct._zend_string = type { %struct._zend_refcounted_h, i64, i64, [1 x i8] }
%struct._zend_refcounted_h = type { i32, %union.anon }
%union.anon = type { i32 }
%struct._zval_struct = type { %union._zend_value, %union.anon.0, %union.anon.3 }
%union._zend_value = type { i64 }
%union.anon.0 = type { i32 }
%union.anon.3 = type { i32 }
%struct._php_stream = type { ptr, ptr, %struct._php_stream_filter_chain, %struct._php_stream_filter_chain, ptr, ptr, %struct._zval_struct, i16, [16 x i8], i32, ptr, ptr, ptr, ptr, i64, ptr, i64, i64, i64, i64, ptr }
%struct._php_stream_filter_chain = type { ptr, ptr, ptr }
%struct._php_ftp_dirstream_data = type { ptr, ptr, ptr }
%struct._php_stream_dirent = type { [4096 x i8], i8 }

; Function Attrs: alwaysinline nounwind uwtable
define internal i32 @zend_gc_delref(ptr noundef %0) #7 {
  %2 = alloca ptr, align 8
  store ptr %0, ptr %2, align 8, !tbaa !73
  %3 = load ptr, ptr %2, align 8, !tbaa !73
  %4 = getelementptr inbounds nuw %struct._zend_refcounted_h, ptr %3, i32 0, i32 0
  %5 = load i32, ptr %4, align 4, !tbaa !75
  %6 = icmp ugt i32 %5, 0
  call void @llvm.assume(i1 %6)
  br label %7

7:                                                ; preds = %1
  br label %8

8:                                                ; preds = %7
  %9 = load ptr, ptr %2, align 8, !tbaa !73
  %10 = getelementptr inbounds nuw %struct._zend_refcounted_h, ptr %9, i32 0, i32 0
  %11 = load i32, ptr %10, align 4, !tbaa !75
  %12 = add i32 %11, -1
  store i32 %12, ptr %10, align 4, !tbaa !75
  ret i32 %12
}

; Function Attrs: alwaysinline nounwind uwtable
define internal i32 @zval_gc_flags(i32 noundef %0) #7 {
  %2 = alloca i32, align 4
  store i32 %0, ptr %2, align 4, !tbaa !11
  %3 = load i32, ptr %2, align 4, !tbaa !11
  %4 = lshr i32 %3, 0
  %5 = and i32 %4, 1008
  ret i32 %5
}

; Function Attrs: alwaysinline nounwind uwtable
define internal void @zend_string_release_ex(ptr noundef %0, i1 noundef zeroext %1) #7 {
  %3 = alloca ptr, align 8
  %4 = alloca i8, align 1
  store ptr %0, ptr %3, align 8, !tbaa !26
  %5 = zext i1 %1 to i8
  store i8 %5, ptr %4, align 1, !tbaa !23
  %6 = load ptr, ptr %3, align 8, !tbaa !26
  %7 = getelementptr inbounds nuw %struct._zend_string, ptr %6, i32 0, i32 0
  %8 = getelementptr inbounds nuw %struct._zend_refcounted_h, ptr %7, i32 0, i32 1
  %9 = load i32, ptr %8, align 4, !tbaa !25
  %10 = call i32 @zval_gc_flags(i32 noundef %9)
  %11 = and i32 %10, 64
  %12 = icmp ne i32 %11, 0
  br i1 %12, label %27, label %13

13:                                               ; preds = %2
  %14 = load ptr, ptr %3, align 8, !tbaa !26
  %15 = getelementptr inbounds nuw %struct._zend_string, ptr %14, i32 0, i32 0
  %16 = call i32 @zend_gc_delref(ptr noundef %15)
  %17 = icmp eq i32 %16, 0
  br i1 %17, label %18, label %26

18:                                               ; preds = %13
  %19 = load i8, ptr %4, align 1, !tbaa !23, !range !38, !noundef !39
  %20 = trunc i8 %19 to i1
  br i1 %20, label %21, label %23

21:                                               ; preds = %18
  %22 = load ptr, ptr %3, align 8, !tbaa !26
  call void @free(ptr noundef %22) #11
  br label %25

23:                                               ; preds = %18
  %24 = load ptr, ptr %3, align 8, !tbaa !26
  call void @_efree(ptr noundef %24)
  br label %25

25:                                               ; preds = %23, %21
  br label %26

26:                                               ; preds = %25, %13
  br label %27

27:                                               ; preds = %26, %2
  ret void
}

; Function Attrs: nounwind uwtable
define internal i64 @php_ftp_dirstream_read(ptr noundef %0, ptr noundef %1, i64 noundef %2) #0 {
  %4 = alloca i64, align 8
  %5 = alloca ptr, align 8
  %6 = alloca ptr, align 8
  %7 = alloca i64, align 8
  %8 = alloca ptr, align 8
  %9 = alloca ptr, align 8
  %10 = alloca i64, align 8
  %11 = alloca ptr, align 8
  %12 = alloca i32, align 4
  store ptr %0, ptr %5, align 8, !tbaa !17
  store ptr %1, ptr %6, align 8, !tbaa !9
  store i64 %2, ptr %7, align 8, !tbaa !21
  call void @llvm.lifetime.start.p0(i64 8, ptr %8) #11
  %13 = load ptr, ptr %6, align 8, !tbaa !9
  store ptr %13, ptr %8, align 8, !tbaa !107
  call void @llvm.lifetime.start.p0(i64 8, ptr %9) #11
  call void @llvm.lifetime.start.p0(i64 8, ptr %10) #11
  call void @llvm.lifetime.start.p0(i64 8, ptr %11) #11
  %14 = load ptr, ptr %5, align 8, !tbaa !17
  %15 = getelementptr inbounds nuw %struct._php_stream, ptr %14, i32 0, i32 1
  %16 = load ptr, ptr %15, align 8, !tbaa !109
  %17 = getelementptr inbounds nuw %struct._php_ftp_dirstream_data, ptr %16, i32 0, i32 0
  %18 = load ptr, ptr %17, align 8, !tbaa !103
  store ptr %18, ptr %9, align 8, !tbaa !17
  %19 = load i64, ptr %7, align 8, !tbaa !21
  %20 = icmp ne i64 %19, 4097
  br i1 %20, label %21, label %22

21:                                               ; preds = %3
  store i64 -1, ptr %4, align 8
  store i32 1, ptr %12, align 4
  br label %118

22:                                               ; preds = %3
  %23 = load ptr, ptr %9, align 8, !tbaa !17
  %24 = call zeroext i1 @_php_stream_eof(ptr noundef %23)
  br i1 %24, label %25, label %26

25:                                               ; preds = %22
  store i64 0, ptr %4, align 8
  store i32 1, ptr %12, align 4
  br label %118

26:                                               ; preds = %22
  %27 = load ptr, ptr %9, align 8, !tbaa !17
  %28 = load ptr, ptr %8, align 8, !tbaa !107
  %29 = getelementptr inbounds nuw %struct._php_stream_dirent, ptr %28, i32 0, i32 0
  %30 = getelementptr inbounds [4096 x i8], ptr %29, i64 0, i64 0
  %31 = call ptr @_php_stream_get_line(ptr noundef %27, ptr noundef %30, i64 noundef 4096, ptr noundef %10)
  %32 = icmp ne ptr %31, null
  br i1 %32, label %34, label %33

33:                                               ; preds = %26
  store i64 -1, ptr %4, align 8
  store i32 1, ptr %12, align 4
  br label %118

34:                                               ; preds = %26
  %35 = load ptr, ptr %8, align 8, !tbaa !107
  %36 = getelementptr inbounds nuw %struct._php_stream_dirent, ptr %35, i32 0, i32 0
  %37 = getelementptr inbounds [4096 x i8], ptr %36, i64 0, i64 0
  %38 = load i64, ptr %10, align 8, !tbaa !21
  %39 = call ptr @php_basename(ptr noundef %37, i64 noundef %38, ptr noundef null, i64 noundef 0)
  store ptr %39, ptr %11, align 8, !tbaa !26
  %40 = load ptr, ptr %11, align 8, !tbaa !26
  %41 = getelementptr inbounds nuw %struct._zend_string, ptr %40, i32 0, i32 2
  %42 = load i64, ptr %41, align 8, !tbaa !59
  %43 = sub i64 %42, 1
  %44 = icmp ult i64 4096, %43
  br i1 %44, label %45, label %46

45:                                               ; preds = %34
  br label %51

46:                                               ; preds = %34
  %47 = load ptr, ptr %11, align 8, !tbaa !26
  %48 = getelementptr inbounds nuw %struct._zend_string, ptr %47, i32 0, i32 2
  %49 = load i64, ptr %48, align 8, !tbaa !59
  %50 = sub i64 %49, 1
  br label %51

51:                                               ; preds = %46, %45
  %52 = phi i64 [ 4096, %45 ], [ %50, %46 ]
  store i64 %52, ptr %10, align 8, !tbaa !21
  %53 = load ptr, ptr %8, align 8, !tbaa !107
  %54 = getelementptr inbounds nuw %struct._php_stream_dirent, ptr %53, i32 0, i32 0
  %55 = getelementptr inbounds [4096 x i8], ptr %54, i64 0, i64 0
  %56 = load ptr, ptr %11, align 8, !tbaa !26
  %57 = getelementptr inbounds nuw %struct._zend_string, ptr %56, i32 0, i32 3
  %58 = getelementptr inbounds [1 x i8], ptr %57, i64 0, i64 0
  %59 = load i64, ptr %10, align 8, !tbaa !21
  call void @llvm.memcpy.p0.p0.i64(ptr align 1 %55, ptr align 8 %58, i64 %59, i1 false)
  %60 = load ptr, ptr %8, align 8, !tbaa !107
  %61 = getelementptr inbounds nuw %struct._php_stream_dirent, ptr %60, i32 0, i32 0
  %62 = load i64, ptr %10, align 8, !tbaa !21
  %63 = sub i64 %62, 1
  %64 = getelementptr inbounds nuw [4096 x i8], ptr %61, i64 0, i64 %63
  store i8 0, ptr %64, align 1, !tbaa !25
  %65 = load ptr, ptr %11, align 8, !tbaa !26
  call void @zend_string_release_ex(ptr noundef %65, i1 noundef zeroext false)
  %66 = load ptr, ptr %8, align 8, !tbaa !107
  %67 = getelementptr inbounds nuw %struct._php_stream_dirent, ptr %66, i32 0, i32 1
  store i8 0, ptr %67, align 1, !tbaa !110
  br label %68

68:                                               ; preds = %111, %51
  %69 = load i64, ptr %10, align 8, !tbaa !21
  %70 = icmp ugt i64 %69, 0
  br i1 %70, label %71, label %109

71:                                               ; preds = %68
  %72 = load ptr, ptr %8, align 8, !tbaa !107
  %73 = getelementptr inbounds nuw %struct._php_stream_dirent, ptr %72, i32 0, i32 0
  %74 = load i64, ptr %10, align 8, !tbaa !21
  %75 = sub i64 %74, 1
  %76 = getelementptr inbounds nuw [4096 x i8], ptr %73, i64 0, i64 %75
  %77 = load i8, ptr %76, align 1, !tbaa !25
  %78 = sext i8 %77 to i32
  %79 = icmp eq i32 %78, 10
  br i1 %79, label %107, label %80

80:                                               ; preds = %71
  %81 = load ptr, ptr %8, align 8, !tbaa !107
  %82 = getelementptr inbounds nuw %struct._php_stream_dirent, ptr %81, i32 0, i32 0
  %83 = load i64, ptr %10, align 8, !tbaa !21
  %84 = sub i64 %83, 1
  %85 = getelementptr inbounds nuw [4096 x i8], ptr %82, i64 0, i64 %84
  %86 = load i8, ptr %85, align 1, !tbaa !25
  %87 = sext i8 %86 to i32
  %88 = icmp eq i32 %87, 13
  br i1 %88, label %107, label %89

89:                                               ; preds = %80
  %90 = load ptr, ptr %8, align 8, !tbaa !107
  %91 = getelementptr inbounds nuw %struct._php_stream_dirent, ptr %90, i32 0, i32 0
  %92 = load i64, ptr %10, align 8, !tbaa !21
  %93 = sub i64 %92, 1
  %94 = getelementptr inbounds nuw [4096 x i8], ptr %91, i64 0, i64 %93
  %95 = load i8, ptr %94, align 1, !tbaa !25
  %96 = sext i8 %95 to i32
  %97 = icmp eq i32 %96, 9
  br i1 %97, label %107, label %98

98:                                               ; preds = %89
  %99 = load ptr, ptr %8, align 8, !tbaa !107
  %100 = getelementptr inbounds nuw %struct._php_stream_dirent, ptr %99, i32 0, i32 0
  %101 = load i64, ptr %10, align 8, !tbaa !21
  %102 = sub i64 %101, 1
  %103 = getelementptr inbounds nuw [4096 x i8], ptr %100, i64 0, i64 %102
  %104 = load i8, ptr %103, align 1, !tbaa !25
  %105 = sext i8 %104 to i32
  %106 = icmp eq i32 %105, 32
  br label %107

107:                                              ; preds = %98, %89, %80, %71
  %108 = phi i1 [ true, %89 ], [ true, %80 ], [ true, %71 ], [ %106, %98 ]
  br label %109

109:                                              ; preds = %107, %68
  %110 = phi i1 [ false, %68 ], [ %108, %107 ]
  br i1 %110, label %111, label %117

111:                                              ; preds = %109
  %112 = load ptr, ptr %8, align 8, !tbaa !107
  %113 = getelementptr inbounds nuw %struct._php_stream_dirent, ptr %112, i32 0, i32 0
  %114 = load i64, ptr %10, align 8, !tbaa !21
  %115 = add i64 %114, -1
  store i64 %115, ptr %10, align 8, !tbaa !21
  %116 = getelementptr inbounds nuw [4096 x i8], ptr %113, i64 0, i64 %115
  store i8 0, ptr %116, align 1, !tbaa !25
  br label %68

117:                                              ; preds = %109
  store i64 4097, ptr %4, align 8
  store i32 1, ptr %12, align 4
  br label %118

118:                                              ; preds = %117, %33, %25, %21
  call void @llvm.lifetime.end.p0(i64 8, ptr %11) #11
  call void @llvm.lifetime.end.p0(i64 8, ptr %10) #11
  call void @llvm.lifetime.end.p0(i64 8, ptr %9) #11
  call void @llvm.lifetime.end.p0(i64 8, ptr %8) #11
  %119 = load i64, ptr %4, align 8
  ret i64 %119
}