; Function Attrs: nounwind uwtable
define internal range(i64 -1, 4098) i64 @php_ftp_dirstream_read(ptr noundef readonly captures(none) %0, ptr noundef %1, i64 noundef %2) #0 {
  %4 = alloca i64, align 8
  call void @llvm.lifetime.start.p0(i64 8, ptr nonnull %4) #15
  %5 = getelementptr inbounds nuw i8, ptr %0, i64 8
  %6 = load ptr, ptr %5, align 8, !tbaa !81
  %7 = load ptr, ptr %6, align 8, !tbaa !77
  %.not = icmp eq i64 %2, 4097
  br i1 %.not, label %8, label %.critedge

8:                                                ; preds = %3
  %9 = tail call zeroext i1 @_php_stream_eof(ptr noundef %7) #15
  br i1 %9, label %.critedge, label %10

10:                                               ; preds = %8
  %11 = call ptr @_php_stream_get_line(ptr noundef %7, ptr noundef %1, i64 noundef 4096, ptr noundef nonnull %4) #15
  %.not24 = icmp eq ptr %11, null
  br i1 %.not24, label %.critedge, label %12

12:                                               ; preds = %10
  %13 = load i64, ptr %4, align 8, !tbaa !66
  %14 = call ptr @php_basename(ptr noundef %1, i64 noundef %13, ptr noundef null, i64 noundef 0) #15
  %15 = getelementptr inbounds nuw i8, ptr %14, i64 16
  %16 = load i64, ptr %15, align 8, !tbaa !45
  %17 = add i64 %16, -1
  %spec.select = call i64 @llvm.umin.i64(i64 %17, i64 4096)
  store i64 %spec.select, ptr %4, align 8, !tbaa !66
  %18 = getelementptr inbounds nuw i8, ptr %14, i64 24
  call void @llvm.memcpy.p0.p0.i64(ptr align 1 %1, ptr nonnull align 8 %18, i64 %spec.select, i1 false)
  %19 = add nsw i64 %spec.select, -1
  %20 = getelementptr inbounds nuw [4096 x i8], ptr %1, i64 0, i64 %19
  store i8 0, ptr %20, align 1, !tbaa !17
  %21 = getelementptr inbounds nuw i8, ptr %14, i64 4
  %22 = load i32, ptr %21, align 4, !tbaa !17
  %23 = and i32 %22, 64
  %.not.i = icmp eq i32 %23, 0
  br i1 %.not.i, label %24, label %zend_string_release_ex.exit

24:                                               ; preds = %12
  %25 = load i32, ptr %14, align 4, !tbaa !42
  %26 = icmp ne i32 %25, 0
  call void @llvm.assume(i1 %26)
  %27 = add i32 %25, -1
  store i32 %27, ptr %14, align 4, !tbaa !42
  %28 = icmp eq i32 %27, 0
  br i1 %28, label %29, label %zend_string_release_ex.exit

29:                                               ; preds = %24
  call void @_efree(ptr noundef nonnull %14) #15
  %.pr.pre = load i64, ptr %4, align 8, !tbaa !66
  br label %zend_string_release_ex.exit

zend_string_release_ex.exit:                      ; preds = %12, %24, %29
  %.pr = phi i64 [ %spec.select, %12 ], [ %spec.select, %24 ], [ %.pr.pre, %29 ]
  %30 = getelementptr inbounds nuw i8, ptr %1, i64 4096
  store i8 0, ptr %30, align 1, !tbaa !82
  %.not2526 = icmp eq i64 %.pr, 0
  br i1 %.not2526, label %.critedge, label %.lr.ph

.lr.ph:                                           ; preds = %zend_string_release_ex.exit, %.critedge2
  %31 = phi i64 [ %32, %.critedge2 ], [ %.pr, %zend_string_release_ex.exit ]
  %32 = add i64 %31, -1
  %33 = getelementptr inbounds nuw [4096 x i8], ptr %1, i64 0, i64 %32
  %34 = load i8, ptr %33, align 1, !tbaa !17
  switch i8 %34, label %.critedge [
    i8 10, label %.critedge2
    i8 13, label %.critedge2
    i8 9, label %.critedge2
    i8 32, label %.critedge2
  ]

.critedge2:                                       ; preds = %.lr.ph, %.lr.ph, %.lr.ph, %.lr.ph
  store i8 0, ptr %33, align 1, !tbaa !17
  %.not25 = icmp eq i64 %32, 0
  br i1 %.not25, label %.critedge, label %.lr.ph

.critedge:                                        ; preds = %.lr.ph, %.critedge2, %zend_string_release_ex.exit, %10, %8, %3
  %.0 = phi i64 [ -1, %3 ], [ 0, %8 ], [ -1, %10 ], [ 4097, %zend_string_release_ex.exit ], [ 4097, %.critedge2 ], [ 4097, %.lr.ph ]
  call void @llvm.lifetime.end.p0(i64 8, ptr nonnull %4) #15
  ret i64 %.0
}